target datalayout = "e-m:e-p270:32:32-p271:32:32-p272:64:64-i64:64-i128:128-f80:128-n8:16:32:64-S128"
target triple = "x86_64-pc-linux-gnu"

%struct.GlobDirCallbackData = type { ptr, ptr, i32, i32, ptr, ptr, ptr, i64, ptr }

@.str = private unnamed_addr constant [26 x i8] c"Parameter '%s' is invalid\00", align 1
@.str.1 = private unnamed_addr constant [5 x i8] c"path\00", align 1

; Function Attrs: nounwind uwtable
define hidden ptr @SDL_InternalGlobDirectory(ptr noundef %0, ptr noundef %1, i32 noundef %2, ptr noundef %3, ptr noundef %4, ptr noundef %5, ptr noundef %6) #0 {
  %8 = alloca ptr, align 8
  %9 = alloca ptr, align 8
  %10 = alloca ptr, align 8
  %11 = alloca i32, align 4
  %12 = alloca ptr, align 8
  %13 = alloca ptr, align 8
  %14 = alloca ptr, align 8
  %15 = alloca ptr, align 8
  %16 = alloca i32, align 4
  %17 = alloca i32, align 4
  %18 = alloca ptr, align 8
  %19 = alloca i64, align 8
  %20 = alloca ptr, align 8
  %21 = alloca ptr, align 8
  %22 = alloca %struct.GlobDirCallbackData, align 8
  %23 = alloca ptr, align 8
  %24 = alloca i64, align 8
  %25 = alloca i64, align 8
  %26 = alloca i64, align 8
  %27 = alloca ptr, align 8
  %28 = alloca i32, align 4
  store ptr %0, ptr %9, align 8
  store ptr %1, ptr %10, align 8
  store i32 %2, ptr %11, align 4
  store ptr %3, ptr %12, align 8
  store ptr %4, ptr %13, align 8
  store ptr %5, ptr %14, align 8
  store ptr %6, ptr %15, align 8
  call void @llvm.lifetime.start.p0(i64 4, ptr %16) #5
  %29 = load ptr, ptr %12, align 8
  %30 = icmp ne ptr %29, null
  br i1 %30, label %32, label %31

31:                                               ; preds = %7
  store ptr %16, ptr %12, align 8
  br label %32

32:                                               ; preds = %31, %7
  %33 = load ptr, ptr %12, align 8
  store i32 0, ptr %33, align 4
  %34 = load ptr, ptr %9, align 8
  %35 = icmp ne ptr %34, null
  br i1 %35, label %38, label %36

36:                                               ; preds = %32
  %37 = call zeroext i1 (ptr, ...) @SDL_SetError_REAL(ptr noundef @.str, ptr noundef @.str.1)
  store ptr null, ptr %8, align 8
  store i32 1, ptr %17, align 4
  br label %247

38:                                               ; preds = %32
  call void @llvm.lifetime.start.p0(i64 8, ptr %18) #5
  store ptr null, ptr %18, align 8
  call void @llvm.lifetime.start.p0(i64 8, ptr %19) #5
  %39 = load ptr, ptr %9, align 8
  %40 = call i64 @SDL_strlen_REAL(ptr noundef %39)
  store i64 %40, ptr %19, align 8
  %41 = load i64, ptr %19, align 8
  %42 = icmp ugt i64 %41, 1
  br i1 %42, label %43, label %93

43:                                               ; preds = %38
  %44 = load ptr, ptr %9, align 8
  %45 = load i64, ptr %19, align 8
  %46 = sub i64 %45, 1
  %47 = getelementptr inbounds nuw i8, ptr %44, i64 %46
  %48 = load i8, ptr %47, align 1
  %49 = sext i8 %48 to i32
  %50 = icmp eq i32 %49, 47
  br i1 %50, label %59, label %51

51:                                               ; preds = %43
  %52 = load ptr, ptr %9, align 8
  %53 = load i64, ptr %19, align 8
  %54 = sub i64 %53, 1
  %55 = getelementptr inbounds nuw i8, ptr %52, i64 %54
  %56 = load i8, ptr %55, align 1
  %57 = sext i8 %56 to i32
  %58 = icmp eq i32 %57, 92
  br i1 %58, label %59, label %93

59:                                               ; preds = %51, %43
  %60 = load ptr, ptr %9, align 8
  %61 = call noalias ptr @SDL_strdup_REAL(ptr noundef %60)
  store ptr %61, ptr %18, align 8
  %62 = load ptr, ptr %18, align 8
  %63 = icmp ne ptr %62, null
  br i1 %63, label %65, label %64

64:                                               ; preds = %59
  store ptr null, ptr %8, align 8
  store i32 1, ptr %17, align 4
  br label %246

65:                                               ; preds = %59
  call void @llvm.lifetime.start.p0(i64 8, ptr %20) #5
  %66 = load ptr, ptr %18, align 8
  %67 = load i64, ptr %19, align 8
  %68 = sub i64 %67, 1
  %69 = getelementptr inbounds nuw i8, ptr %66, i64 %68
  store ptr %69, ptr %20, align 8
  br label %70

70:                                               ; preds = %88, %65
  %71 = load ptr, ptr %20, align 8
  %72 = load ptr, ptr %18, align 8
  %73 = icmp uge ptr %71, %72
  br i1 %73, label %74, label %86

74:                                               ; preds = %70
  %75 = load ptr, ptr %20, align 8
  %76 = load i8, ptr %75, align 1
  %77 = sext i8 %76 to i32
  %78 = icmp eq i32 %77, 47
  br i1 %78, label %84, label %79

79:                                               ; preds = %74
  %80 = load ptr, ptr %20, align 8
  %81 = load i8, ptr %80, align 1
  %82 = sext i8 %81 to i32
  %83 = icmp eq i32 %82, 92
  br label %84

84:                                               ; preds = %79, %74
  %85 = phi i1 [ true, %74 ], [ %83, %79 ]
  br label %86

86:                                               ; preds = %84, %70
  %87 = phi i1 [ false, %70 ], [ %85, %84 ]
  br i1 %87, label %88, label %91

88:                                               ; preds = %86
  %89 = load ptr, ptr %20, align 8
  %90 = getelementptr inbounds i8, ptr %89, i32 -1
  store ptr %90, ptr %20, align 8
  store i8 0, ptr %89, align 1
  br label %70, !llvm.loop !7

91:                                               ; preds = %86
  %92 = load ptr, ptr %18, align 8
  store ptr %92, ptr %9, align 8
  call void @llvm.lifetime.end.p0(i64 8, ptr %20) #5
  br label %93

93:                                               ; preds = %91, %51, %38
  %94 = load ptr, ptr %10, align 8
  %95 = icmp ne ptr %94, null
  br i1 %95, label %99, label %96

96:                                               ; preds = %93
  %97 = load i32, ptr %11, align 4
  %98 = and i32 %97, -2
  store i32 %98, ptr %11, align 4
  br label %99

99:                                               ; preds = %96, %93
  call void @llvm.lifetime.start.p0(i64 8, ptr %21) #5
  store ptr null, ptr %21, align 8
  %100 = load i32, ptr %11, align 4
  %101 = and i32 %100, 1
  %102 = icmp ne i32 %101, 0
  br i1 %102, label %103, label %114

103:                                              ; preds = %99
  br label %104

104:                                              ; preds = %103
  br label %105

105:                                              ; preds = %104
  br label %106

106:                                              ; preds = %105
  %107 = load ptr, ptr %10, align 8
  %108 = call ptr @CaseFoldUtf8String(ptr noundef %107)
  store ptr %108, ptr %21, align 8
  %109 = load ptr, ptr %21, align 8
  %110 = icmp ne ptr %109, null
  br i1 %110, label %113, label %111

111:                                              ; preds = %106
  %112 = load ptr, ptr %18, align 8
  call void @SDL_free_REAL(ptr noundef %112)
  store ptr null, ptr %8, align 8
  store i32 1, ptr %17, align 4
  br label %245

113:                                              ; preds = %106
  br label %114

114:                                              ; preds = %113, %99
  call void @llvm.lifetime.start.p0(i64 64, ptr %22) #5
  call void @llvm.memset.p0.i64(ptr align 8 %22, i8 0, i64 64, i1 false)
  %115 = call ptr @SDL_IOFromDynamicMem_REAL()
  %116 = getelementptr inbounds nuw %struct.GlobDirCallbackData, ptr %22, i32 0, i32 8
  store ptr %115, ptr %116, align 8
  %117 = getelementptr inbounds nuw %struct.GlobDirCallbackData, ptr %22, i32 0, i32 8
  %118 = load ptr, ptr %117, align 8
  %119 = icmp ne ptr %118, null
  br i1 %119, label %123, label %120

120:                                              ; preds = %114
  %121 = load ptr, ptr %21, align 8
  call void @SDL_free_REAL(ptr noundef %121)
  %122 = load ptr, ptr %18, align 8
  call void @SDL_free_REAL(ptr noundef %122)
  store ptr null, ptr %8, align 8
  store i32 1, ptr %17, align 4
  br label %244

123:                                              ; preds = %114
  %124 = load ptr, ptr %10, align 8
  %125 = icmp ne ptr %124, null
  br i1 %125, label %128, label %126

126:                                              ; preds = %123
  %127 = getelementptr inbounds nuw %struct.GlobDirCallbackData, ptr %22, i32 0, i32 0
  store ptr @EverythingMatch, ptr %127, align 8
  br label %130

128:                                              ; preds = %123
  %129 = getelementptr inbounds nuw %struct.GlobDirCallbackData, ptr %22, i32 0, i32 0
  store ptr @WildcardMatch, ptr %129, align 8
  br label %130

130:                                              ; preds = %128, %126
  %131 = load ptr, ptr %21, align 8
  %132 = icmp ne ptr %131, null
  br i1 %132, label %133, label %135

133:                                              ; preds = %130
  %134 = load ptr, ptr %21, align 8
  br label %137

135:                                              ; preds = %130
  %136 = load ptr, ptr %10, align 8
  br label %137

137:                                              ; preds = %135, %133
  %138 = phi ptr [ %134, %133 ], [ %136, %135 ]
  %139 = getelementptr inbounds nuw %struct.GlobDirCallbackData, ptr %22, i32 0, i32 1
  store ptr %138, ptr %139, align 8
  %140 = load i32, ptr %11, align 4
  %141 = getelementptr inbounds nuw %struct.GlobDirCallbackData, ptr %22, i32 0, i32 3
  store i32 %140, ptr %141, align 4
  %142 = load ptr, ptr %13, align 8
  %143 = getelementptr inbounds nuw %struct.GlobDirCallbackData, ptr %22, i32 0, i32 4
  store ptr %142, ptr %143, align 8
  %144 = load ptr, ptr %14, align 8
  %145 = getelementptr inbounds nuw %struct.GlobDirCallbackData, ptr %22, i32 0, i32 5
  store ptr %144, ptr %145, align 8
  %146 = load ptr, ptr %15, align 8
  %147 = getelementptr inbounds nuw %struct.GlobDirCallbackData, ptr %22, i32 0, i32 6
  store ptr %146, ptr %147, align 8
  %148 = load ptr, ptr %9, align 8
  %149 = load i8, ptr %148, align 1
  %150 = sext i8 %149 to i32
  %151 = icmp ne i32 %150, 0
  br i1 %151, label %152, label %156

152:                                              ; preds = %137
  %153 = load ptr, ptr %9, align 8
  %154 = call i64 @SDL_strlen_REAL(ptr noundef %153)
  %155 = add i64 %154, 1
  br label %157

156:                                              ; preds = %137
  br label %157

157:                                              ; preds = %156, %152
  %158 = phi i64 [ %155, %152 ], [ 0, %156 ]
  %159 = getelementptr inbounds nuw %struct.GlobDirCallbackData, ptr %22, i32 0, i32 7
  store i64 %158, ptr %159, align 8
  call void @llvm.lifetime.start.p0(i64 8, ptr %23) #5
  store ptr null, ptr %23, align 8
  %160 = getelementptr inbounds nuw %struct.GlobDirCallbackData, ptr %22, i32 0, i32 4
  %161 = load ptr, ptr %160, align 8
  %162 = load ptr, ptr %9, align 8
  %163 = getelementptr inbounds nuw %struct.GlobDirCallbackData, ptr %22, i32 0, i32 6
  %164 = load ptr, ptr %163, align 8
  %165 = call zeroext i1 %161(ptr noundef %162, ptr noundef @GlobDirectoryCallback, ptr noundef %22, ptr noundef %164)
  br i1 %165, label %166, label %237

166:                                              ; preds = %157
  call void @llvm.lifetime.start.p0(i64 8, ptr %24) #5
  %167 = getelementptr inbounds nuw %struct.GlobDirCallbackData, ptr %22, i32 0, i32 8
  %168 = load ptr, ptr %167, align 8
  %169 = call i64 @SDL_GetIOSize_REAL(ptr noundef %168)
  store i64 %169, ptr %24, align 8
  call void @llvm.lifetime.start.p0(i64 8, ptr %25) #5
  %170 = load i64, ptr %24, align 8
  %171 = getelementptr inbounds nuw %struct.GlobDirCallbackData, ptr %22, i32 0, i32 2
  %172 = load i32, ptr %171, align 8
  %173 = add nsw i32 %172, 1
  %174 = sext i32 %173 to i64
  %175 = mul i64 %174, 8
  %176 = add i64 %170, %175
  store i64 %176, ptr %25, align 8
  %177 = load i64, ptr %25, align 8
  %178 = call noalias ptr @SDL_malloc_REAL(i64 noundef %177)
  store ptr %178, ptr %23, align 8
  %179 = load ptr, ptr %23, align 8
  %180 = icmp ne ptr %179, null
  br i1 %180, label %181, label %236

181:                                              ; preds = %166
  %182 = getelementptr inbounds nuw %struct.GlobDirCallbackData, ptr %22, i32 0, i32 2
  %183 = load i32, ptr %182, align 8
  %184 = icmp sgt i32 %183, 0
  br i1 %184, label %185, label %227

185:                                              ; preds = %181
  call void @llvm.lifetime.start.p0(i64 8, ptr %26) #5
  %186 = getelementptr inbounds nuw %struct.GlobDirCallbackData, ptr %22, i32 0, i32 8
  %187 = load ptr, ptr %186, align 8
  %188 = call i64 @SDL_SeekIO_REAL(ptr noundef %187, i64 noundef 0, i32 noundef 0)
  store i64 %188, ptr %26, align 8
  br label %189

189:                                              ; preds = %185
  br label %190

190:                                              ; preds = %189
  br label %191

191:                                              ; preds = %190
  call void @llvm.lifetime.start.p0(i64 8, ptr %27) #5
  %192 = load ptr, ptr %23, align 8
  %193 = getelementptr inbounds nuw %struct.GlobDirCallbackData, ptr %22, i32 0, i32 2
  %194 = load i32, ptr %193, align 8
  %195 = add nsw i32 %194, 1
  %196 = sext i32 %195 to i64
  %197 = getelementptr inbounds ptr, ptr %192, i64 %196
  store ptr %197, ptr %27, align 8
  %198 = getelementptr inbounds nuw %struct.GlobDirCallbackData, ptr %22, i32 0, i32 8
  %199 = load ptr, ptr %198, align 8
  %200 = load ptr, ptr %27, align 8
  %201 = load i64, ptr %24, align 8
  %202 = call i64 @SDL_ReadIO_REAL(ptr noundef %199, ptr noundef %200, i64 noundef %201)
  store i64 %202, ptr %26, align 8
  br label %203

203:                                              ; preds = %191
  br label %204

204:                                              ; preds = %203
  br label %205

205:                                              ; preds = %204
  call void @llvm.lifetime.start.p0(i64 4, ptr %28) #5
  store i32 0, ptr %28, align 4
  br label %206

206:                                              ; preds = %223, %205
  %207 = load i32, ptr %28, align 4
  %208 = getelementptr inbounds nuw %struct.GlobDirCallbackData, ptr %22, i32 0, i32 2
  %209 = load i32, ptr %208, align 8
  %210 = icmp slt i32 %207, %209
  br i1 %210, label %212, label %211

211:                                              ; preds = %206
  store i32 10, ptr %17, align 4
  call void @llvm.lifetime.end.p0(i64 4, ptr %28) #5
  br label %226

212:                                              ; preds = %206
  %213 = load ptr, ptr %27, align 8
  %214 = load ptr, ptr %23, align 8
  %215 = load i32, ptr %28, align 4
  %216 = sext i32 %215 to i64
  %217 = getelementptr inbounds ptr, ptr %214, i64 %216
  store ptr %213, ptr %217, align 8
  %218 = load ptr, ptr %27, align 8
  %219 = call i64 @SDL_strlen_REAL(ptr noundef %218)
  %220 = add i64 %219, 1
  %221 = load ptr, ptr %27, align 8
  %222 = getelementptr inbounds nuw i8, ptr %221, i64 %220
  store ptr %222, ptr %27, align 8
  br label %223

223:                                              ; preds = %212
  %224 = load i32, ptr %28, align 4
  %225 = add nsw i32 %224, 1
  store i32 %225, ptr %28, align 4
  br label %206, !llvm.loop !8

226:                                              ; preds = %211
  call void @llvm.lifetime.end.p0(i64 8, ptr %27) #5
  call void @llvm.lifetime.end.p0(i64 8, ptr %26) #5
  br label %227

227:                                              ; preds = %226, %181
  %228 = load ptr, ptr %23, align 8
  %229 = getelementptr inbounds nuw %struct.GlobDirCallbackData, ptr %22, i32 0, i32 2
  %230 = load i32, ptr %229, align 8
  %231 = sext i32 %230 to i64
  %232 = getelementptr inbounds ptr, ptr %228, i64 %231
  store ptr null, ptr %232, align 8
  %233 = getelementptr inbounds nuw %struct.GlobDirCallbackData, ptr %22, i32 0, i32 2
  %234 = load i32, ptr %233, align 8
  %235 = load ptr, ptr %12, align 8
  store i32 %234, ptr %235, align 4
  br label %236

236:                                              ; preds = %227, %166
  call void @llvm.lifetime.end.p0(i64 8, ptr %25) #5
  call void @llvm.lifetime.end.p0(i64 8, ptr %24) #5
  br label %237

237:                                              ; preds = %236, %157
  %238 = getelementptr inbounds nuw %struct.GlobDirCallbackData, ptr %22, i32 0, i32 8
  %239 = load ptr, ptr %238, align 8
  %240 = call zeroext i1 @SDL_CloseIO_REAL(ptr noundef %239)
  %241 = load ptr, ptr %21, align 8
  call void @SDL_free_REAL(ptr noundef %241)
  %242 = load ptr, ptr %18, align 8
  call void @SDL_free_REAL(ptr noundef %242)
  %243 = load ptr, ptr %23, align 8
  store ptr %243, ptr %8, align 8
  store i32 1, ptr %17, align 4
  call void @llvm.lifetime.end.p0(i64 8, ptr %23) #5
  br label %244

244:                                              ; preds = %237, %120
  call void @llvm.lifetime.end.p0(i64 64, ptr %22) #5
  br label %245

245:                                              ; preds = %244, %111
  call void @llvm.lifetime.end.p0(i64 8, ptr %21) #5
  br label %246

246:                                              ; preds = %245, %64
  call void @llvm.lifetime.end.p0(i64 8, ptr %19) #5
  call void @llvm.lifetime.end.p0(i64 8, ptr %18) #5
  br label %247

247:                                              ; preds = %246, %36
  call void @llvm.lifetime.end.p0(i64 4, ptr %16) #5
  %248 = load ptr, ptr %8, align 8
  ret ptr %248
}