; Function Attrs: nounwind uwtable
define hidden ptr @SDL_InternalGlobDirectory(ptr noundef %0, ptr noundef %1, i32 noundef %2, ptr noundef writeonly captures(address_is_null) %3, ptr noundef %4, ptr noundef %5, ptr noundef %6) local_unnamed_addr #0 {
  %8 = alloca %struct.GlobDirCallbackData, align 8
  %.not = icmp eq ptr %3, null
  br i1 %.not, label %.cont83, label %.else85

.else85:                                          ; preds = %7
  store i32 0, ptr %3, align 4
  br label %.cont83

.cont83:                                          ; preds = %7, %.else85
  %.not73 = icmp eq ptr %0, null
  br i1 %.not73, label %9, label %11

9:                                                ; preds = %.cont83
  %10 = tail call zeroext i1 (ptr, ...) @SDL_SetError_REAL(ptr noundef nonnull @.str, ptr noundef nonnull @.str.1) #8
  br label %85

11:                                               ; preds = %.cont83
  %12 = tail call i64 @SDL_strlen_REAL(ptr noundef nonnull %0) #8
  %13 = icmp ugt i64 %12, 1
  br i1 %13, label %14, label %.critedge

14:                                               ; preds = %11
  %15 = add i64 %12, -1
  %16 = getelementptr inbounds nuw i8, ptr %0, i64 %15
  %17 = load i8, ptr %16, align 1
  switch i8 %17, label %.critedge [
    i8 47, label %18
    i8 92, label %18
  ]

18:                                               ; preds = %14, %14
  %19 = tail call noalias ptr @SDL_strdup_REAL(ptr noundef nonnull %0) #8
  %.not74 = icmp eq ptr %19, null
  br i1 %.not74, label %85, label %.lr.ph.preheader

.lr.ph.preheader:                                 ; preds = %18
  %20 = getelementptr inbounds nuw i8, ptr %19, i64 %15
  br label %.lr.ph

.lr.ph:                                           ; preds = %.lr.ph.preheader, %.critedge2
  %.06487 = phi ptr [ %22, %.critedge2 ], [ %20, %.lr.ph.preheader ]
  %21 = load i8, ptr %.06487, align 1
  switch i8 %21, label %.critedge [
    i8 47, label %.critedge2
    i8 92, label %.critedge2
  ]

.critedge2:                                       ; preds = %.lr.ph, %.lr.ph
  %22 = getelementptr inbounds i8, ptr %.06487, i64 -1
  store i8 0, ptr %.06487, align 1
  %.not75 = icmp ult ptr %22, %19
  br i1 %.not75, label %.critedge, label %.lr.ph, !llvm.loop !5

.critedge:                                        ; preds = %.lr.ph, %.critedge2, %14, %11
  %.065 = phi ptr [ null, %11 ], [ null, %14 ], [ %19, %.critedge2 ], [ %19, %.lr.ph ]
  %.060 = phi ptr [ %0, %11 ], [ %0, %14 ], [ %19, %.critedge2 ], [ %19, %.lr.ph ]
  %.not76 = icmp eq ptr %1, null
  %23 = and i32 %2, -2
  %spec.select = select i1 %.not76, i32 %23, i32 %2
  %24 = and i32 %spec.select, 1
  %.not77 = icmp eq i32 %24, 0
  br i1 %.not77, label %28, label %25

25:                                               ; preds = %.critedge
  %26 = tail call fastcc ptr @CaseFoldUtf8String(ptr noundef %1)
  %.not78 = icmp eq ptr %26, null
  br i1 %.not78, label %27, label %28

27:                                               ; preds = %25
  tail call void @SDL_free_REAL(ptr noundef %.065) #8
  br label %85

28:                                               ; preds = %25, %.critedge
  %.063 = phi ptr [ %26, %25 ], [ null, %.critedge ]
  call void @llvm.lifetime.start.p0(i64 64, ptr nonnull %8) #8
  %29 = getelementptr inbounds nuw i8, ptr %8, i64 16
  store i64 0, ptr %29, align 8
  %30 = tail call ptr @SDL_IOFromDynamicMem_REAL() #8
  %31 = getelementptr inbounds nuw i8, ptr %8, i64 56
  store ptr %30, ptr %31, align 8
  %.not79 = icmp eq ptr %30, null
  br i1 %.not79, label %32, label %33

32:                                               ; preds = %28
  tail call void @SDL_free_REAL(ptr noundef %.063) #8
  tail call void @SDL_free_REAL(ptr noundef %.065) #8
  br label %84

33:                                               ; preds = %28
  %EverythingMatch.WildcardMatch = select i1 %.not76, ptr @EverythingMatch, ptr @WildcardMatch
  store ptr %EverythingMatch.WildcardMatch, ptr %8, align 8
  %.not80 = icmp eq ptr %.063, null
  %34 = select i1 %.not80, ptr %1, ptr %.063
  %35 = getelementptr inbounds nuw i8, ptr %8, i64 8
  store ptr %34, ptr %35, align 8
  %36 = getelementptr inbounds nuw i8, ptr %8, i64 20
  store i32 %spec.select, ptr %36, align 4
  %37 = getelementptr inbounds nuw i8, ptr %8, i64 24
  store ptr %4, ptr %37, align 8
  %38 = getelementptr inbounds nuw i8, ptr %8, i64 32
  store ptr %5, ptr %38, align 8
  %39 = getelementptr inbounds nuw i8, ptr %8, i64 40
  store ptr %6, ptr %39, align 8
  %40 = load i8, ptr %.060, align 1
  %.not81 = icmp eq i8 %40, 0
  br i1 %.not81, label %44, label %41

41:                                               ; preds = %33
  %42 = tail call i64 @SDL_strlen_REAL(ptr noundef nonnull %.060) #8
  %43 = add i64 %42, 1
  br label %44

44:                                               ; preds = %33, %41
  %45 = phi i64 [ %43, %41 ], [ 0, %33 ]
  %46 = getelementptr inbounds nuw i8, ptr %8, i64 48
  store i64 %45, ptr %46, align 8
  %47 = call zeroext i1 %4(ptr noundef nonnull %.060, ptr noundef nonnull @GlobDirectoryCallback, ptr noundef nonnull %8, ptr noundef %6) #8
  br i1 %47, label %48, label %.cont

48:                                               ; preds = %44
  %49 = load ptr, ptr %31, align 8
  %50 = call i64 @SDL_GetIOSize_REAL(ptr noundef %49) #8
  %51 = getelementptr inbounds nuw i8, ptr %8, i64 16
  %52 = load i32, ptr %51, align 8
  %53 = add nsw i32 %52, 1
  %54 = sext i32 %53 to i64
  %55 = shl nsw i64 %54, 3
  %56 = add i64 %55, %50
  %57 = call noalias ptr @SDL_malloc_REAL(i64 noundef %56) #8
  %.not82 = icmp eq ptr %57, null
  br i1 %.not82, label %.cont, label %58

58:                                               ; preds = %48
  %59 = load i32, ptr %51, align 8
  %60 = icmp sgt i32 %59, 0
  br i1 %60, label %61, label %.loopexit

61:                                               ; preds = %58
  %62 = load ptr, ptr %31, align 8
  %63 = call i64 @SDL_SeekIO_REAL(ptr noundef %62, i64 noundef 0, i32 noundef 0) #8
  %64 = load i32, ptr %51, align 8
  %65 = sext i32 %64 to i64
  %66 = getelementptr ptr, ptr %57, i64 %65
  %67 = getelementptr i8, ptr %66, i64 8
  %68 = load ptr, ptr %31, align 8
  %69 = call i64 @SDL_ReadIO_REAL(ptr noundef %68, ptr noundef %67, i64 noundef %50) #8
  %70 = load i32, ptr %51, align 8
  %71 = icmp sgt i32 %70, 0
  br i1 %71, label %.lr.ph91, label %.loopexit

.lr.ph91:                                         ; preds = %61, %.lr.ph91
  %indvars.iv = phi i64 [ %indvars.iv.next, %.lr.ph91 ], [ 0, %61 ]
  %.05889 = phi ptr [ %75, %.lr.ph91 ], [ %67, %61 ]
  %72 = getelementptr inbounds nuw ptr, ptr %57, i64 %indvars.iv
  store ptr %.05889, ptr %72, align 8
  %73 = call i64 @SDL_strlen_REAL(ptr noundef %.05889) #8
  %74 = getelementptr i8, ptr %.05889, i64 %73
  %75 = getelementptr i8, ptr %74, i64 1
  %indvars.iv.next = add nuw nsw i64 %indvars.iv, 1
  %76 = load i32, ptr %51, align 8
  %77 = sext i32 %76 to i64
  %78 = icmp slt i64 %indvars.iv.next, %77
  br i1 %78, label %.lr.ph91, label %.loopexit, !llvm.loop !6

.loopexit:                                        ; preds = %.lr.ph91, %61, %58
  %79 = phi i32 [ %70, %61 ], [ %59, %58 ], [ %76, %.lr.ph91 ]
  %80 = sext i32 %79 to i64
  %81 = getelementptr inbounds ptr, ptr %57, i64 %80
  store ptr null, ptr %81, align 8
  br i1 %.not, label %.cont, label %.else

.else:                                            ; preds = %.loopexit
  store i32 %79, ptr %3, align 4
  br label %.cont

.cont:                                            ; preds = %.else, %.loopexit, %48, %44
  %.062 = phi ptr [ null, %44 ], [ null, %48 ], [ %57, %.loopexit ], [ %57, %.else ]
  %82 = load ptr, ptr %31, align 8
  %83 = call zeroext i1 @SDL_CloseIO_REAL(ptr noundef %82) #8
  call void @SDL_free_REAL(ptr noundef %.063) #8
  call void @SDL_free_REAL(ptr noundef %.065) #8
  br label %84

84:                                               ; preds = %.cont, %32
  %.3 = phi ptr [ %.062, %.cont ], [ null, %32 ]
  call void @llvm.lifetime.end.p0(i64 64, ptr nonnull %8) #8
  br label %85

85:                                               ; preds = %18, %84, %27, %9
  %.059 = phi ptr [ null, %9 ], [ null, %18 ], [ %.3, %84 ], [ null, %27 ]
  ret ptr %.059
}